; Function Attrs: nounwind uwtable
define noalias noundef ptr @vectorDifference(ptr noundef readonly captures(none) %0, ptr noundef readonly captures(none) %1) local_unnamed_addr #5 {
  %calloc = tail call dereferenceable_or_null(16) ptr @calloc(i64 1, i64 16)
  %3 = getelementptr inbounds nuw i8, ptr %calloc, i64 4
  %4 = getelementptr inbounds nuw i8, ptr %calloc, i64 8
  %5 = getelementptr i8, ptr %0, i64 4
  %.val11 = load i32, ptr %5, align 4, !tbaa !42
  %6 = icmp sgt i32 %.val11, 0
  br i1 %6, label %.lr.ph, label %.critedge

.lr.ph:                                           ; preds = %2
  %7 = getelementptr i8, ptr %0, i64 8
  %8 = getelementptr inbounds nuw i8, ptr %1, i64 4
  %9 = getelementptr inbounds nuw i8, ptr %1, i64 8
  br label %10

10:                                               ; preds = %.lr.ph, %Vec_IntFind.exit
  %.val17 = phi i32 [ %.val11, %.lr.ph ], [ %.val, %Vec_IntFind.exit ]
  %11 = phi ptr [ null, %.lr.ph ], [ %.pre.i15, %Vec_IntFind.exit ]
  %indvars.iv = phi i64 [ 0, %.lr.ph ], [ %indvars.iv.next, %Vec_IntFind.exit ]
  %.val9 = load ptr, ptr %7, align 8, !tbaa !9
  %12 = getelementptr inbounds nuw i32, ptr %.val9, i64 %indvars.iv
  %13 = load i32, ptr %12, align 4, !tbaa !50
  %14 = load i32, ptr %8, align 4, !tbaa !42
  %15 = icmp sgt i32 %14, 0
  br i1 %15, label %.lr.ph.i, label %Vec_IntFind.exit.thread

.lr.ph.i:                                         ; preds = %10
  %16 = load ptr, ptr %9, align 8, !tbaa !9
  %wide.trip.count.i = zext nneg i32 %14 to i64
  br label %17

17:                                               ; preds = %21, %.lr.ph.i
  %indvars.iv.i = phi i64 [ 0, %.lr.ph.i ], [ %indvars.iv.next.i, %21 ]
  %18 = getelementptr inbounds nuw i32, ptr %16, i64 %indvars.iv.i
  %19 = load i32, ptr %18, align 4, !tbaa !50
  %20 = icmp eq i32 %19, %13
  br i1 %20, label %Vec_IntFind.exit, label %21

21:                                               ; preds = %17
  %indvars.iv.next.i = add nuw nsw i64 %indvars.iv.i, 1
  %exitcond.not.i = icmp eq i64 %indvars.iv.next.i, %wide.trip.count.i
  br i1 %exitcond.not.i, label %Vec_IntFind.exit.thread, label %17, !llvm.loop !67

Vec_IntFind.exit.thread:                          ; preds = %21, %10
  %22 = load i32, ptr %3, align 4, !tbaa !42
  %23 = load i32, ptr %calloc, align 8, !tbaa !64
  %24 = icmp eq i32 %22, %23
  br i1 %24, label %25, label %Vec_IntPush.exit

25:                                               ; preds = %Vec_IntFind.exit.thread
  %26 = icmp slt i32 %22, 16
  br i1 %26, label %27, label %32

27:                                               ; preds = %25
  %.not9.i.i = icmp eq ptr %11, null
  br i1 %.not9.i.i, label %30, label %28

28:                                               ; preds = %27
  %29 = tail call dereferenceable_or_null(64) ptr @realloc(ptr noundef nonnull %11, i64 noundef 64) #17
  br label %Vec_IntPush.exit.sink.split

30:                                               ; preds = %27
  %31 = tail call noalias dereferenceable_or_null(64) ptr @malloc(i64 noundef 64) #16
  br label %Vec_IntPush.exit.sink.split

32:                                               ; preds = %25
  %33 = shl nuw nsw i32 %22, 1
  %.not9.i9.i = icmp eq ptr %11, null
  %34 = zext nneg i32 %33 to i64
  %35 = shl nuw nsw i64 %34, 2
  br i1 %.not9.i9.i, label %38, label %36

36:                                               ; preds = %32
  %37 = tail call ptr @realloc(ptr noundef nonnull %11, i64 noundef %35) #17
  br label %Vec_IntPush.exit.sink.split

38:                                               ; preds = %32
  %39 = tail call noalias ptr @malloc(i64 noundef %35) #16
  br label %Vec_IntPush.exit.sink.split

Vec_IntPush.exit.sink.split:                      ; preds = %36, %38, %28, %30
  %.sink19 = phi ptr [ %29, %28 ], [ %31, %30 ], [ %37, %36 ], [ %39, %38 ]
  %.sink = phi i32 [ 16, %28 ], [ 16, %30 ], [ %33, %36 ], [ %33, %38 ]
  store ptr %.sink19, ptr %4, align 8, !tbaa !9
  store i32 %.sink, ptr %calloc, align 8, !tbaa !64
  br label %Vec_IntPush.exit

Vec_IntPush.exit:                                 ; preds = %Vec_IntPush.exit.sink.split, %Vec_IntFind.exit.thread
  %.pre.i16 = phi ptr [ %11, %Vec_IntFind.exit.thread ], [ %.sink19, %Vec_IntPush.exit.sink.split ]
  %40 = add nsw i32 %22, 1
  store i32 %40, ptr %3, align 4, !tbaa !42
  %41 = sext i32 %22 to i64
  %42 = getelementptr inbounds i32, ptr %.pre.i16, i64 %41
  store i32 %13, ptr %42, align 4, !tbaa !50
  %.val.pre = load i32, ptr %5, align 4, !tbaa !42
  br label %Vec_IntFind.exit

Vec_IntFind.exit:                                 ; preds = %17, %Vec_IntPush.exit
  %.val = phi i32 [ %.val.pre, %Vec_IntPush.exit ], [ %.val17, %17 ]
  %.pre.i15 = phi ptr [ %.pre.i16, %Vec_IntPush.exit ], [ %11, %17 ]
  %indvars.iv.next = add nuw nsw i64 %indvars.iv, 1
  %43 = sext i32 %.val to i64
  %44 = icmp slt i64 %indvars.iv.next, %43
  br i1 %44, label %10, label %.critedge, !llvm.loop !69

.critedge:                                        ; preds = %Vec_IntFind.exit, %2
  ret ptr %calloc
}